target datalayout = "e-m:e-p270:32:32-p271:32:32-p272:64:64-i64:64-i128:128-f80:128-n8:16:32:64-S128"
target triple = "x86_64-pc-linux-gnu"

%struct.RCVLN = type { [5120 x i8], i32, i32, ptr, ptr }

; Function Attrs: nounwind uwtable
define void @recvlninit(ptr noundef %0, i32 noundef %1) #0 {
  %3 = alloca ptr, align 8
  %4 = alloca i32, align 4
  store ptr %0, ptr %3, align 8
  store i32 %1, ptr %4, align 4
  %5 = load i32, ptr %4, align 4
  %6 = load ptr, ptr %3, align 8
  %7 = getelementptr inbounds %struct.RCVLN, ptr %6, i32 0, i32 1
  store i32 %5, ptr %7, align 8
  %8 = load ptr, ptr %3, align 8
  %9 = getelementptr inbounds %struct.RCVLN, ptr %8, i32 0, i32 0
  %10 = getelementptr inbounds [5120 x i8], ptr %9, i64 0, i64 0
  %11 = load ptr, ptr %3, align 8
  %12 = getelementptr inbounds %struct.RCVLN, ptr %11, i32 0, i32 3
  store ptr %10, ptr %12, align 8
  %13 = load ptr, ptr %3, align 8
  %14 = getelementptr inbounds %struct.RCVLN, ptr %13, i32 0, i32 4
  store ptr %10, ptr %14, align 8
  %15 = load ptr, ptr %3, align 8
  %16 = getelementptr inbounds %struct.RCVLN, ptr %15, i32 0, i32 2
  store i32 0, ptr %16, align 4
  ret void
}