; Function Attrs: mustprogress nofree norecurse nosync nounwind willreturn memory(argmem: write) uwtable
define void @recvlninit(ptr noundef %0, i32 noundef %1) local_unnamed_addr #4 {
  %3 = getelementptr inbounds i8, ptr %0, i64 5120
  store i32 %1, ptr %3, align 8
  %4 = getelementptr inbounds i8, ptr %0, i64 5128
  store ptr %0, ptr %4, align 8
  %5 = getelementptr inbounds i8, ptr %0, i64 5136
  store ptr %0, ptr %5, align 8
  %6 = getelementptr inbounds i8, ptr %0, i64 5124
  store i32 0, ptr %6, align 4
  ret void
}